target datalayout = "e-m:e-p270:32:32-p271:32:32-p272:64:64-i64:64-i128:128-f80:128-n8:16:32:64-S128"
target triple = "x86_64-pc-linux-gnu"

%struct.dbd_job_comp_msg = type { ptr, i32, ptr, i64, i32, i64, ptr, i32, ptr, i32, i32, ptr, i32, i64, i64, ptr, ptr }

; Function Attrs: nounwind uwtable
define internal void @_pack_job_complete_msg(ptr noundef %0, i16 noundef zeroext %1, ptr noundef %2) #0 {
  %4 = alloca ptr, align 8
  %5 = alloca i16, align 2
  %6 = alloca ptr, align 8
  %7 = alloca i32, align 4
  %8 = alloca i32, align 4
  %9 = alloca i32, align 4
  %10 = alloca i32, align 4
  %11 = alloca i32, align 4
  %12 = alloca i32, align 4
  %13 = alloca i32, align 4
  store ptr %0, ptr %4, align 8
  store i16 %1, ptr %5, align 2
  store ptr %2, ptr %6, align 8
  %14 = load i16, ptr %5, align 2
  %15 = zext i16 %14 to i32
  %16 = icmp sge i32 %15, 10240
  br i1 %16, label %17, label %191

17:                                               ; preds = %3
  br label %18

18:                                               ; preds = %17
  call void @llvm.lifetime.start.p0(i64 4, ptr %7) #5
  store i32 0, ptr %7, align 4
  %19 = load ptr, ptr %4, align 8
  %20 = getelementptr inbounds nuw %struct.dbd_job_comp_msg, ptr %19, i32 0, i32 0
  %21 = load ptr, ptr %20, align 8
  %22 = icmp ne ptr %21, null
  br i1 %22, label %23, label %30

23:                                               ; preds = %18
  %24 = load ptr, ptr %4, align 8
  %25 = getelementptr inbounds nuw %struct.dbd_job_comp_msg, ptr %24, i32 0, i32 0
  %26 = load ptr, ptr %25, align 8
  %27 = call i64 @strlen(ptr noundef %26) #6
  %28 = trunc i64 %27 to i32
  %29 = add i32 %28, 1
  store i32 %29, ptr %7, align 4
  br label %30

30:                                               ; preds = %23, %18
  %31 = load ptr, ptr %4, align 8
  %32 = getelementptr inbounds nuw %struct.dbd_job_comp_msg, ptr %31, i32 0, i32 0
  %33 = load ptr, ptr %32, align 8
  %34 = load i32, ptr %7, align 4
  %35 = load ptr, ptr %6, align 8
  call void @packmem(ptr noundef %33, i32 noundef %34, ptr noundef %35)
  call void @llvm.lifetime.end.p0(i64 4, ptr %7) #5
  br label %36

36:                                               ; preds = %30
  %37 = load ptr, ptr %4, align 8
  %38 = getelementptr inbounds nuw %struct.dbd_job_comp_msg, ptr %37, i32 0, i32 1
  %39 = load i32, ptr %38, align 8
  %40 = load ptr, ptr %6, align 8
  call void @pack32(i32 noundef %39, ptr noundef %40)
  br label %41

41:                                               ; preds = %36
  call void @llvm.lifetime.start.p0(i64 4, ptr %8) #5
  store i32 0, ptr %8, align 4
  %42 = load ptr, ptr %4, align 8
  %43 = getelementptr inbounds nuw %struct.dbd_job_comp_msg, ptr %42, i32 0, i32 2
  %44 = load ptr, ptr %43, align 8
  %45 = icmp ne ptr %44, null
  br i1 %45, label %46, label %53

46:                                               ; preds = %41
  %47 = load ptr, ptr %4, align 8
  %48 = getelementptr inbounds nuw %struct.dbd_job_comp_msg, ptr %47, i32 0, i32 2
  %49 = load ptr, ptr %48, align 8
  %50 = call i64 @strlen(ptr noundef %49) #6
  %51 = trunc i64 %50 to i32
  %52 = add i32 %51, 1
  store i32 %52, ptr %8, align 4
  br label %53

53:                                               ; preds = %46, %41
  %54 = load ptr, ptr %4, align 8
  %55 = getelementptr inbounds nuw %struct.dbd_job_comp_msg, ptr %54, i32 0, i32 2
  %56 = load ptr, ptr %55, align 8
  %57 = load i32, ptr %8, align 4
  %58 = load ptr, ptr %6, align 8
  call void @packmem(ptr noundef %56, i32 noundef %57, ptr noundef %58)
  call void @llvm.lifetime.end.p0(i64 4, ptr %8) #5
  br label %59

59:                                               ; preds = %53
  %60 = load ptr, ptr %4, align 8
  %61 = getelementptr inbounds nuw %struct.dbd_job_comp_msg, ptr %60, i32 0, i32 3
  %62 = load i64, ptr %61, align 8
  %63 = load ptr, ptr %6, align 8
  call void @pack64(i64 noundef %62, ptr noundef %63)
  %64 = load ptr, ptr %4, align 8
  %65 = getelementptr inbounds nuw %struct.dbd_job_comp_msg, ptr %64, i32 0, i32 4
  %66 = load i32, ptr %65, align 8
  %67 = load ptr, ptr %6, align 8
  call void @pack32(i32 noundef %66, ptr noundef %67)
  %68 = load ptr, ptr %4, align 8
  %69 = getelementptr inbounds nuw %struct.dbd_job_comp_msg, ptr %68, i32 0, i32 5
  %70 = load i64, ptr %69, align 8
  %71 = load ptr, ptr %6, align 8
  call void @pack_time(i64 noundef %70, ptr noundef %71)
  %72 = load ptr, ptr %4, align 8
  %73 = getelementptr inbounds nuw %struct.dbd_job_comp_msg, ptr %72, i32 0, i32 7
  %74 = load i32, ptr %73, align 8
  %75 = load ptr, ptr %6, align 8
  call void @pack32(i32 noundef %74, ptr noundef %75)
  br label %76

76:                                               ; preds = %59
  call void @llvm.lifetime.start.p0(i64 4, ptr %9) #5
  store i32 0, ptr %9, align 4
  %77 = load ptr, ptr %4, align 8
  %78 = getelementptr inbounds nuw %struct.dbd_job_comp_msg, ptr %77, i32 0, i32 8
  %79 = load ptr, ptr %78, align 8
  %80 = icmp ne ptr %79, null
  br i1 %80, label %81, label %88

81:                                               ; preds = %76
  %82 = load ptr, ptr %4, align 8
  %83 = getelementptr inbounds nuw %struct.dbd_job_comp_msg, ptr %82, i32 0, i32 8
  %84 = load ptr, ptr %83, align 8
  %85 = call i64 @strlen(ptr noundef %84) #6
  %86 = trunc i64 %85 to i32
  %87 = add i32 %86, 1
  store i32 %87, ptr %9, align 4
  br label %88

88:                                               ; preds = %81, %76
  %89 = load ptr, ptr %4, align 8
  %90 = getelementptr inbounds nuw %struct.dbd_job_comp_msg, ptr %89, i32 0, i32 8
  %91 = load ptr, ptr %90, align 8
  %92 = load i32, ptr %9, align 4
  %93 = load ptr, ptr %6, align 8
  call void @packmem(ptr noundef %91, i32 noundef %92, ptr noundef %93)
  call void @llvm.lifetime.end.p0(i64 4, ptr %9) #5
  br label %94

94:                                               ; preds = %88
  br label %95

95:                                               ; preds = %94
  call void @llvm.lifetime.start.p0(i64 4, ptr %10) #5
  store i32 0, ptr %10, align 4
  %96 = load ptr, ptr %4, align 8
  %97 = getelementptr inbounds nuw %struct.dbd_job_comp_msg, ptr %96, i32 0, i32 6
  %98 = load ptr, ptr %97, align 8
  %99 = icmp ne ptr %98, null
  br i1 %99, label %100, label %107

100:                                              ; preds = %95
  %101 = load ptr, ptr %4, align 8
  %102 = getelementptr inbounds nuw %struct.dbd_job_comp_msg, ptr %101, i32 0, i32 6
  %103 = load ptr, ptr %102, align 8
  %104 = call i64 @strlen(ptr noundef %103) #6
  %105 = trunc i64 %104 to i32
  %106 = add i32 %105, 1
  store i32 %106, ptr %10, align 4
  br label %107

107:                                              ; preds = %100, %95
  %108 = load ptr, ptr %4, align 8
  %109 = getelementptr inbounds nuw %struct.dbd_job_comp_msg, ptr %108, i32 0, i32 6
  %110 = load ptr, ptr %109, align 8
  %111 = load i32, ptr %10, align 4
  %112 = load ptr, ptr %6, align 8
  call void @packmem(ptr noundef %110, i32 noundef %111, ptr noundef %112)
  call void @llvm.lifetime.end.p0(i64 4, ptr %10) #5
  br label %113

113:                                              ; preds = %107
  %114 = load ptr, ptr %4, align 8
  %115 = getelementptr inbounds nuw %struct.dbd_job_comp_msg, ptr %114, i32 0, i32 9
  %116 = load i32, ptr %115, align 8
  %117 = load ptr, ptr %6, align 8
  call void @pack32(i32 noundef %116, ptr noundef %117)
  %118 = load ptr, ptr %4, align 8
  %119 = getelementptr inbounds nuw %struct.dbd_job_comp_msg, ptr %118, i32 0, i32 10
  %120 = load i32, ptr %119, align 4
  %121 = load ptr, ptr %6, align 8
  call void @pack32(i32 noundef %120, ptr noundef %121)
  br label %122

122:                                              ; preds = %113
  call void @llvm.lifetime.start.p0(i64 4, ptr %11) #5
  store i32 0, ptr %11, align 4
  %123 = load ptr, ptr %4, align 8
  %124 = getelementptr inbounds nuw %struct.dbd_job_comp_msg, ptr %123, i32 0, i32 11
  %125 = load ptr, ptr %124, align 8
  %126 = icmp ne ptr %125, null
  br i1 %126, label %127, label %134

127:                                              ; preds = %122
  %128 = load ptr, ptr %4, align 8
  %129 = getelementptr inbounds nuw %struct.dbd_job_comp_msg, ptr %128, i32 0, i32 11
  %130 = load ptr, ptr %129, align 8
  %131 = call i64 @strlen(ptr noundef %130) #6
  %132 = trunc i64 %131 to i32
  %133 = add i32 %132, 1
  store i32 %133, ptr %11, align 4
  br label %134

134:                                              ; preds = %127, %122
  %135 = load ptr, ptr %4, align 8
  %136 = getelementptr inbounds nuw %struct.dbd_job_comp_msg, ptr %135, i32 0, i32 11
  %137 = load ptr, ptr %136, align 8
  %138 = load i32, ptr %11, align 4
  %139 = load ptr, ptr %6, align 8
  call void @packmem(ptr noundef %137, i32 noundef %138, ptr noundef %139)
  call void @llvm.lifetime.end.p0(i64 4, ptr %11) #5
  br label %140

140:                                              ; preds = %134
  %141 = load ptr, ptr %4, align 8
  %142 = getelementptr inbounds nuw %struct.dbd_job_comp_msg, ptr %141, i32 0, i32 12
  %143 = load i32, ptr %142, align 8
  %144 = load ptr, ptr %6, align 8
  call void @pack32(i32 noundef %143, ptr noundef %144)
  %145 = load ptr, ptr %4, align 8
  %146 = getelementptr inbounds nuw %struct.dbd_job_comp_msg, ptr %145, i32 0, i32 13
  %147 = load i64, ptr %146, align 8
  %148 = load ptr, ptr %6, align 8
  call void @pack_time(i64 noundef %147, ptr noundef %148)
  %149 = load ptr, ptr %4, align 8
  %150 = getelementptr inbounds nuw %struct.dbd_job_comp_msg, ptr %149, i32 0, i32 14
  %151 = load i64, ptr %150, align 8
  %152 = load ptr, ptr %6, align 8
  call void @pack_time(i64 noundef %151, ptr noundef %152)
  br label %153

153:                                              ; preds = %140
  call void @llvm.lifetime.start.p0(i64 4, ptr %12) #5
  store i32 0, ptr %12, align 4
  %154 = load ptr, ptr %4, align 8
  %155 = getelementptr inbounds nuw %struct.dbd_job_comp_msg, ptr %154, i32 0, i32 15
  %156 = load ptr, ptr %155, align 8
  %157 = icmp ne ptr %156, null
  br i1 %157, label %158, label %165

158:                                              ; preds = %153
  %159 = load ptr, ptr %4, align 8
  %160 = getelementptr inbounds nuw %struct.dbd_job_comp_msg, ptr %159, i32 0, i32 15
  %161 = load ptr, ptr %160, align 8
  %162 = call i64 @strlen(ptr noundef %161) #6
  %163 = trunc i64 %162 to i32
  %164 = add i32 %163, 1
  store i32 %164, ptr %12, align 4
  br label %165

165:                                              ; preds = %158, %153
  %166 = load ptr, ptr %4, align 8
  %167 = getelementptr inbounds nuw %struct.dbd_job_comp_msg, ptr %166, i32 0, i32 15
  %168 = load ptr, ptr %167, align 8
  %169 = load i32, ptr %12, align 4
  %170 = load ptr, ptr %6, align 8
  call void @packmem(ptr noundef %168, i32 noundef %169, ptr noundef %170)
  call void @llvm.lifetime.end.p0(i64 4, ptr %12) #5
  br label %171

171:                                              ; preds = %165
  br label %172

172:                                              ; preds = %171
  call void @llvm.lifetime.start.p0(i64 4, ptr %13) #5
  store i32 0, ptr %13, align 4
  %173 = load ptr, ptr %4, align 8
  %174 = getelementptr inbounds nuw %struct.dbd_job_comp_msg, ptr %173, i32 0, i32 16
  %175 = load ptr, ptr %174, align 8
  %176 = icmp ne ptr %175, null
  br i1 %176, label %177, label %184

177:                                              ; preds = %172
  %178 = load ptr, ptr %4, align 8
  %179 = getelementptr inbounds nuw %struct.dbd_job_comp_msg, ptr %178, i32 0, i32 16
  %180 = load ptr, ptr %179, align 8
  %181 = call i64 @strlen(ptr noundef %180) #6
  %182 = trunc i64 %181 to i32
  %183 = add i32 %182, 1
  store i32 %183, ptr %13, align 4
  br label %184

184:                                              ; preds = %177, %172
  %185 = load ptr, ptr %4, align 8
  %186 = getelementptr inbounds nuw %struct.dbd_job_comp_msg, ptr %185, i32 0, i32 16
  %187 = load ptr, ptr %186, align 8
  %188 = load i32, ptr %13, align 4
  %189 = load ptr, ptr %6, align 8
  call void @packmem(ptr noundef %187, i32 noundef %188, ptr noundef %189)
  call void @llvm.lifetime.end.p0(i64 4, ptr %13) #5
  br label %190

190:                                              ; preds = %184
  br label %191

191:                                              ; preds = %190, %3
  ret void
}