; Function Attrs: nounwind uwtable
define internal fastcc void @_pack_job_complete_msg(ptr noundef readonly captures(none) %0, i16 noundef zeroext %1, ptr noundef %2) unnamed_addr #0 {
  %4 = icmp ugt i16 %1, 10239
  br i1 %4, label %5, label %74

5:                                                ; preds = %3
  %6 = load ptr, ptr %0, align 8
  %.not = icmp eq ptr %6, null
  br i1 %.not, label %11, label %7

7:                                                ; preds = %5
  %8 = tail call i64 @strlen(ptr noundef nonnull dereferenceable(1) %6) #7
  %9 = trunc i64 %8 to i32
  %10 = add i32 %9, 1
  br label %11

11:                                               ; preds = %7, %5
  %.060 = phi i32 [ %10, %7 ], [ 0, %5 ]
  tail call void @packmem(ptr noundef %6, i32 noundef %.060, ptr noundef %2) #5
  %12 = getelementptr inbounds nuw i8, ptr %0, i64 8
  %13 = load i32, ptr %12, align 8
  tail call void @pack32(i32 noundef %13, ptr noundef %2) #5
  %14 = getelementptr inbounds nuw i8, ptr %0, i64 16
  %15 = load ptr, ptr %14, align 8
  %.not68 = icmp eq ptr %15, null
  br i1 %.not68, label %20, label %16

16:                                               ; preds = %11
  %17 = tail call i64 @strlen(ptr noundef nonnull dereferenceable(1) %15) #7
  %18 = trunc i64 %17 to i32
  %19 = add i32 %18, 1
  br label %20

20:                                               ; preds = %16, %11
  %.059 = phi i32 [ %19, %16 ], [ 0, %11 ]
  tail call void @packmem(ptr noundef %15, i32 noundef %.059, ptr noundef %2) #5
  %21 = getelementptr inbounds nuw i8, ptr %0, i64 24
  %22 = load i64, ptr %21, align 8
  tail call void @pack64(i64 noundef %22, ptr noundef %2) #5
  %23 = getelementptr inbounds nuw i8, ptr %0, i64 32
  %24 = load i32, ptr %23, align 8
  tail call void @pack32(i32 noundef %24, ptr noundef %2) #5
  %25 = getelementptr inbounds nuw i8, ptr %0, i64 40
  %26 = load i64, ptr %25, align 8
  tail call void @pack_time(i64 noundef %26, ptr noundef %2) #5
  %27 = getelementptr inbounds nuw i8, ptr %0, i64 56
  %28 = load i32, ptr %27, align 8
  tail call void @pack32(i32 noundef %28, ptr noundef %2) #5
  %29 = getelementptr inbounds nuw i8, ptr %0, i64 64
  %30 = load ptr, ptr %29, align 8
  %.not69 = icmp eq ptr %30, null
  br i1 %.not69, label %35, label %31

31:                                               ; preds = %20
  %32 = tail call i64 @strlen(ptr noundef nonnull dereferenceable(1) %30) #7
  %33 = trunc i64 %32 to i32
  %34 = add i32 %33, 1
  br label %35

35:                                               ; preds = %31, %20
  %.058 = phi i32 [ %34, %31 ], [ 0, %20 ]
  tail call void @packmem(ptr noundef %30, i32 noundef %.058, ptr noundef %2) #5
  %36 = getelementptr inbounds nuw i8, ptr %0, i64 48
  %37 = load ptr, ptr %36, align 8
  %.not70 = icmp eq ptr %37, null
  br i1 %.not70, label %42, label %38

38:                                               ; preds = %35
  %39 = tail call i64 @strlen(ptr noundef nonnull dereferenceable(1) %37) #7
  %40 = trunc i64 %39 to i32
  %41 = add i32 %40, 1
  br label %42

42:                                               ; preds = %38, %35
  %.057 = phi i32 [ %41, %38 ], [ 0, %35 ]
  tail call void @packmem(ptr noundef %37, i32 noundef %.057, ptr noundef %2) #5
  %43 = getelementptr inbounds nuw i8, ptr %0, i64 72
  %44 = load i32, ptr %43, align 8
  tail call void @pack32(i32 noundef %44, ptr noundef %2) #5
  %45 = getelementptr inbounds nuw i8, ptr %0, i64 76
  %46 = load i32, ptr %45, align 4
  tail call void @pack32(i32 noundef %46, ptr noundef %2) #5
  %47 = getelementptr inbounds nuw i8, ptr %0, i64 80
  %48 = load ptr, ptr %47, align 8
  %.not71 = icmp eq ptr %48, null
  br i1 %.not71, label %53, label %49

49:                                               ; preds = %42
  %50 = tail call i64 @strlen(ptr noundef nonnull dereferenceable(1) %48) #7
  %51 = trunc i64 %50 to i32
  %52 = add i32 %51, 1
  br label %53

53:                                               ; preds = %49, %42
  %.056 = phi i32 [ %52, %49 ], [ 0, %42 ]
  tail call void @packmem(ptr noundef %48, i32 noundef %.056, ptr noundef %2) #5
  %54 = getelementptr inbounds nuw i8, ptr %0, i64 88
  %55 = load i32, ptr %54, align 8
  tail call void @pack32(i32 noundef %55, ptr noundef %2) #5
  %56 = getelementptr inbounds nuw i8, ptr %0, i64 96
  %57 = load i64, ptr %56, align 8
  tail call void @pack_time(i64 noundef %57, ptr noundef %2) #5
  %58 = getelementptr inbounds nuw i8, ptr %0, i64 104
  %59 = load i64, ptr %58, align 8
  tail call void @pack_time(i64 noundef %59, ptr noundef %2) #5
  %60 = getelementptr inbounds nuw i8, ptr %0, i64 112
  %61 = load ptr, ptr %60, align 8
  %.not72 = icmp eq ptr %61, null
  br i1 %.not72, label %66, label %62

62:                                               ; preds = %53
  %63 = tail call i64 @strlen(ptr noundef nonnull dereferenceable(1) %61) #7
  %64 = trunc i64 %63 to i32
  %65 = add i32 %64, 1
  br label %66

66:                                               ; preds = %62, %53
  %.055 = phi i32 [ %65, %62 ], [ 0, %53 ]
  tail call void @packmem(ptr noundef %61, i32 noundef %.055, ptr noundef %2) #5
  %67 = getelementptr inbounds nuw i8, ptr %0, i64 120
  %68 = load ptr, ptr %67, align 8
  %.not73 = icmp eq ptr %68, null
  br i1 %.not73, label %73, label %69

69:                                               ; preds = %66
  %70 = tail call i64 @strlen(ptr noundef nonnull dereferenceable(1) %68) #7
  %71 = trunc i64 %70 to i32
  %72 = add i32 %71, 1
  br label %73

73:                                               ; preds = %69, %66
  %.0 = phi i32 [ %72, %69 ], [ 0, %66 ]
  tail call void @packmem(ptr noundef %68, i32 noundef %.0, ptr noundef %2) #5
  br label %74

74:                                               ; preds = %73, %3
  ret void
}